target datalayout = "e-m:e-p270:32:32-p271:32:32-p272:64:64-i64:64-i128:128-f80:128-n8:16:32:64-S128"
target triple = "x86_64-pc-linux-gnu"

%struct._archiveHandle = type { %struct.Archive, i32, ptr, ptr, i64, i64, i32, %struct.sqlparseInfo, i64, i32, ptr, i64, i64, i64, ptr, ptr, ptr, ptr, ptr, ptr, ptr, ptr, ptr, ptr, ptr, ptr, ptr, ptr, ptr, ptr, ptr, ptr, ptr, ptr, ptr, ptr, ptr, ptr, ptr, ptr, ptr, ptr, ptr, ptr, i32, i32, i8, i32, i8, i32, ptr, ptr, ptr, ptr, i32, i32, ptr, ptr, ptr, %struct.pg_compress_specification, i8, i32, i32, ptr, ptr, ptr, ptr, ptr, i32, ptr, i64, i64, i32, i32, i32, i32, ptr, ptr }
%struct.Archive = type { ptr, ptr, i32, ptr, i32, i8, i32, i32, i32, ptr, i32, i8, ptr, ptr, i8, i32, ptr }
%struct.sqlparseInfo = type { i32, i8, ptr }
%struct.pg_compress_specification = type { i32, i32, i32, i32, i8, ptr }
%struct.lclContext = type { ptr, i32, i64 }

@.str = private unnamed_addr constant [1 x i8] zeroinitializer, align 1
@.str.1 = private unnamed_addr constant [2 x i8] c"w\00", align 1
@.str.2 = private unnamed_addr constant [36 x i8] c"could not open output file \22%s\22: %m\00", align 1
@stdout = external global ptr, align 8
@.str.3 = private unnamed_addr constant [31 x i8] c"could not open output file: %m\00", align 1
@.str.4 = private unnamed_addr constant [2 x i8] c"r\00", align 1
@.str.5 = private unnamed_addr constant [35 x i8] c"could not open input file \22%s\22: %m\00", align 1
@stdin = external global ptr, align 8
@.str.6 = private unnamed_addr constant [30 x i8] c"could not open input file: %m\00", align 1
@.str.19 = private unnamed_addr constant [54 x i8] c"could not determine seek position in archive file: %m\00", align 1

; Function Attrs: nounwind uwtable
define internal i64 @_getFilePos(ptr noundef %0, ptr noundef %1) #0 {
  %3 = alloca ptr, align 8
  %4 = alloca ptr, align 8
  %5 = alloca i64, align 8
  store ptr %0, ptr %3, align 8
  store ptr %1, ptr %4, align 8
  call void @llvm.lifetime.start.p0(i64 8, ptr %5) #7
  %6 = load ptr, ptr %3, align 8
  %7 = getelementptr inbounds nuw %struct._archiveHandle, ptr %6, i32 0, i32 51
  %8 = load ptr, ptr %7, align 8
  %9 = call i64 @ftello(ptr noundef %8)
  store i64 %9, ptr %5, align 8
  %10 = load i64, ptr %5, align 8
  %11 = icmp slt i64 %10, 0
  br i1 %11, label %12, label %22

12:                                               ; preds = %2
  %13 = load ptr, ptr %4, align 8
  %14 = getelementptr inbounds nuw %struct.lclContext, ptr %13, i32 0, i32 1
  %15 = load i32, ptr %14, align 8
  %16 = icmp ne i32 %15, 0
  br i1 %16, label %17, label %21

17:                                               ; preds = %12
  br label %18

18:                                               ; preds = %17
  call void (i32, i32, ptr, ...) @pg_log_generic(i32 noundef 4, i32 noundef 0, ptr noundef @.str.19)
  call void @exit_nicely(i32 noundef 1) #9
  unreachable

19:                                               ; No predecessors!
  br label %20

20:                                               ; preds = %19
  br label %21

21:                                               ; preds = %20, %12
  br label %22

22:                                               ; preds = %21, %2
  %23 = load i64, ptr %5, align 8
  call void @llvm.lifetime.end.p0(i64 8, ptr %5) #7
  ret i64 %23
}

; Function Attrs: nounwind uwtable
define dso_local void @InitArchiveFmt_Custom(ptr noundef %0) #0 {
  %2 = alloca ptr, align 8
  %3 = alloca ptr, align 8
  store ptr %0, ptr %2, align 8
  call void @llvm.lifetime.start.p0(i64 8, ptr %3) #7
  %4 = load ptr, ptr %2, align 8
  %5 = getelementptr inbounds nuw %struct._archiveHandle, ptr %4, i32 0, i32 14
  store ptr @_ArchiveEntry, ptr %5, align 8
  %6 = load ptr, ptr %2, align 8
  %7 = getelementptr inbounds nuw %struct._archiveHandle, ptr %6, i32 0, i32 15
  store ptr @_StartData, ptr %7, align 8
  %8 = load ptr, ptr %2, align 8
  %9 = getelementptr inbounds nuw %struct._archiveHandle, ptr %8, i32 0, i32 16
  store ptr @_WriteData, ptr %9, align 8
  %10 = load ptr, ptr %2, align 8
  %11 = getelementptr inbounds nuw %struct._archiveHandle, ptr %10, i32 0, i32 17
  store ptr @_EndData, ptr %11, align 8
  %12 = load ptr, ptr %2, align 8
  %13 = getelementptr inbounds nuw %struct._archiveHandle, ptr %12, i32 0, i32 18
  store ptr @_WriteByte, ptr %13, align 8
  %14 = load ptr, ptr %2, align 8
  %15 = getelementptr inbounds nuw %struct._archiveHandle, ptr %14, i32 0, i32 19
  store ptr @_ReadByte, ptr %15, align 8
  %16 = load ptr, ptr %2, align 8
  %17 = getelementptr inbounds nuw %struct._archiveHandle, ptr %16, i32 0, i32 20
  store ptr @_WriteBuf, ptr %17, align 8
  %18 = load ptr, ptr %2, align 8
  %19 = getelementptr inbounds nuw %struct._archiveHandle, ptr %18, i32 0, i32 21
  store ptr @_ReadBuf, ptr %19, align 8
  %20 = load ptr, ptr %2, align 8
  %21 = getelementptr inbounds nuw %struct._archiveHandle, ptr %20, i32 0, i32 22
  store ptr @_CloseArchive, ptr %21, align 8
  %22 = load ptr, ptr %2, align 8
  %23 = getelementptr inbounds nuw %struct._archiveHandle, ptr %22, i32 0, i32 23
  store ptr @_ReopenArchive, ptr %23, align 8
  %24 = load ptr, ptr %2, align 8
  %25 = getelementptr inbounds nuw %struct._archiveHandle, ptr %24, i32 0, i32 27
  store ptr @_PrintTocData, ptr %25, align 8
  %26 = load ptr, ptr %2, align 8
  %27 = getelementptr inbounds nuw %struct._archiveHandle, ptr %26, i32 0, i32 25
  store ptr @_ReadExtraToc, ptr %27, align 8
  %28 = load ptr, ptr %2, align 8
  %29 = getelementptr inbounds nuw %struct._archiveHandle, ptr %28, i32 0, i32 24
  store ptr @_WriteExtraToc, ptr %29, align 8
  %30 = load ptr, ptr %2, align 8
  %31 = getelementptr inbounds nuw %struct._archiveHandle, ptr %30, i32 0, i32 26
  store ptr @_PrintExtraToc, ptr %31, align 8
  %32 = load ptr, ptr %2, align 8
  %33 = getelementptr inbounds nuw %struct._archiveHandle, ptr %32, i32 0, i32 28
  store ptr @_StartLOs, ptr %33, align 8
  %34 = load ptr, ptr %2, align 8
  %35 = getelementptr inbounds nuw %struct._archiveHandle, ptr %34, i32 0, i32 30
  store ptr @_StartLO, ptr %35, align 8
  %36 = load ptr, ptr %2, align 8
  %37 = getelementptr inbounds nuw %struct._archiveHandle, ptr %36, i32 0, i32 31
  store ptr @_EndLO, ptr %37, align 8
  %38 = load ptr, ptr %2, align 8
  %39 = getelementptr inbounds nuw %struct._archiveHandle, ptr %38, i32 0, i32 29
  store ptr @_EndLOs, ptr %39, align 8
  %40 = load ptr, ptr %2, align 8
  %41 = getelementptr inbounds nuw %struct._archiveHandle, ptr %40, i32 0, i32 35
  store ptr @_PrepParallelRestore, ptr %41, align 8
  %42 = load ptr, ptr %2, align 8
  %43 = getelementptr inbounds nuw %struct._archiveHandle, ptr %42, i32 0, i32 36
  store ptr @_Clone, ptr %43, align 8
  %44 = load ptr, ptr %2, align 8
  %45 = getelementptr inbounds nuw %struct._archiveHandle, ptr %44, i32 0, i32 37
  store ptr @_DeClone, ptr %45, align 8
  %46 = load ptr, ptr %2, align 8
  %47 = getelementptr inbounds nuw %struct._archiveHandle, ptr %46, i32 0, i32 33
  store ptr null, ptr %47, align 8
  %48 = load ptr, ptr %2, align 8
  %49 = getelementptr inbounds nuw %struct._archiveHandle, ptr %48, i32 0, i32 34
  store ptr @_WorkerJobRestoreCustom, ptr %49, align 8
  %50 = call ptr @pg_malloc0(i64 noundef 24)
  store ptr %50, ptr %3, align 8
  %51 = load ptr, ptr %3, align 8
  %52 = load ptr, ptr %2, align 8
  %53 = getelementptr inbounds nuw %struct._archiveHandle, ptr %52, i32 0, i32 63
  store ptr %51, ptr %53, align 8
  %54 = load ptr, ptr %2, align 8
  %55 = getelementptr inbounds nuw %struct._archiveHandle, ptr %54, i32 0, i32 62
  %56 = load i32, ptr %55, align 8
  %57 = icmp eq i32 %56, 1
  br i1 %57, label %58, label %109

58:                                               ; preds = %1
  %59 = load ptr, ptr %2, align 8
  %60 = getelementptr inbounds nuw %struct._archiveHandle, ptr %59, i32 0, i32 50
  %61 = load ptr, ptr %60, align 8
  %62 = icmp ne ptr %61, null
  br i1 %62, label %63, label %88

63:                                               ; preds = %58
  %64 = load ptr, ptr %2, align 8
  %65 = getelementptr inbounds nuw %struct._archiveHandle, ptr %64, i32 0, i32 50
  %66 = load ptr, ptr %65, align 8
  %67 = call i32 @strcmp(ptr noundef %66, ptr noundef @.str) #8
  %68 = icmp ne i32 %67, 0
  br i1 %68, label %69, label %88

69:                                               ; preds = %63
  %70 = load ptr, ptr %2, align 8
  %71 = getelementptr inbounds nuw %struct._archiveHandle, ptr %70, i32 0, i32 50
  %72 = load ptr, ptr %71, align 8
  %73 = call noalias ptr @fopen(ptr noundef %72, ptr noundef @.str.1)
  %74 = load ptr, ptr %2, align 8
  %75 = getelementptr inbounds nuw %struct._archiveHandle, ptr %74, i32 0, i32 51
  store ptr %73, ptr %75, align 8
  %76 = load ptr, ptr %2, align 8
  %77 = getelementptr inbounds nuw %struct._archiveHandle, ptr %76, i32 0, i32 51
  %78 = load ptr, ptr %77, align 8
  %79 = icmp ne ptr %78, null
  br i1 %79, label %87, label %80

80:                                               ; preds = %69
  br label %81

81:                                               ; preds = %80
  %82 = load ptr, ptr %2, align 8
  %83 = getelementptr inbounds nuw %struct._archiveHandle, ptr %82, i32 0, i32 50
  %84 = load ptr, ptr %83, align 8
  call void (i32, i32, ptr, ...) @pg_log_generic(i32 noundef 4, i32 noundef 0, ptr noundef @.str.2, ptr noundef %84)
  call void @exit_nicely(i32 noundef 1) #9
  unreachable

85:                                               ; No predecessors!
  br label %86

86:                                               ; preds = %85
  br label %87

87:                                               ; preds = %86, %69
  br label %101

88:                                               ; preds = %63, %58
  %89 = load ptr, ptr @stdout, align 8
  %90 = load ptr, ptr %2, align 8
  %91 = getelementptr inbounds nuw %struct._archiveHandle, ptr %90, i32 0, i32 51
  store ptr %89, ptr %91, align 8
  %92 = load ptr, ptr %2, align 8
  %93 = getelementptr inbounds nuw %struct._archiveHandle, ptr %92, i32 0, i32 51
  %94 = load ptr, ptr %93, align 8
  %95 = icmp ne ptr %94, null
  br i1 %95, label %100, label %96

96:                                               ; preds = %88
  br label %97

97:                                               ; preds = %96
  call void (i32, i32, ptr, ...) @pg_log_generic(i32 noundef 4, i32 noundef 0, ptr noundef @.str.3)
  call void @exit_nicely(i32 noundef 1) #9
  unreachable

98:                                               ; No predecessors!
  br label %99

99:                                               ; preds = %98
  br label %100

100:                                              ; preds = %99, %88
  br label %101

101:                                              ; preds = %100, %87
  %102 = load ptr, ptr %2, align 8
  %103 = getelementptr inbounds nuw %struct._archiveHandle, ptr %102, i32 0, i32 51
  %104 = load ptr, ptr %103, align 8
  %105 = call zeroext i1 @checkSeek(ptr noundef %104)
  %106 = zext i1 %105 to i32
  %107 = load ptr, ptr %3, align 8
  %108 = getelementptr inbounds nuw %struct.lclContext, ptr %107, i32 0, i32 1
  store i32 %106, ptr %108, align 8
  br label %167

109:                                              ; preds = %1
  %110 = load ptr, ptr %2, align 8
  %111 = getelementptr inbounds nuw %struct._archiveHandle, ptr %110, i32 0, i32 50
  %112 = load ptr, ptr %111, align 8
  %113 = icmp ne ptr %112, null
  br i1 %113, label %114, label %139

114:                                              ; preds = %109
  %115 = load ptr, ptr %2, align 8
  %116 = getelementptr inbounds nuw %struct._archiveHandle, ptr %115, i32 0, i32 50
  %117 = load ptr, ptr %116, align 8
  %118 = call i32 @strcmp(ptr noundef %117, ptr noundef @.str) #8
  %119 = icmp ne i32 %118, 0
  br i1 %119, label %120, label %139

120:                                              ; preds = %114
  %121 = load ptr, ptr %2, align 8
  %122 = getelementptr inbounds nuw %struct._archiveHandle, ptr %121, i32 0, i32 50
  %123 = load ptr, ptr %122, align 8
  %124 = call noalias ptr @fopen(ptr noundef %123, ptr noundef @.str.4)
  %125 = load ptr, ptr %2, align 8
  %126 = getelementptr inbounds nuw %struct._archiveHandle, ptr %125, i32 0, i32 51
  store ptr %124, ptr %126, align 8
  %127 = load ptr, ptr %2, align 8
  %128 = getelementptr inbounds nuw %struct._archiveHandle, ptr %127, i32 0, i32 51
  %129 = load ptr, ptr %128, align 8
  %130 = icmp ne ptr %129, null
  br i1 %130, label %138, label %131

131:                                              ; preds = %120
  br label %132

132:                                              ; preds = %131
  %133 = load ptr, ptr %2, align 8
  %134 = getelementptr inbounds nuw %struct._archiveHandle, ptr %133, i32 0, i32 50
  %135 = load ptr, ptr %134, align 8
  call void (i32, i32, ptr, ...) @pg_log_generic(i32 noundef 4, i32 noundef 0, ptr noundef @.str.5, ptr noundef %135)
  call void @exit_nicely(i32 noundef 1) #9
  unreachable

136:                                              ; No predecessors!
  br label %137

137:                                              ; preds = %136
  br label %138

138:                                              ; preds = %137, %120
  br label %152

139:                                              ; preds = %114, %109
  %140 = load ptr, ptr @stdin, align 8
  %141 = load ptr, ptr %2, align 8
  %142 = getelementptr inbounds nuw %struct._archiveHandle, ptr %141, i32 0, i32 51
  store ptr %140, ptr %142, align 8
  %143 = load ptr, ptr %2, align 8
  %144 = getelementptr inbounds nuw %struct._archiveHandle, ptr %143, i32 0, i32 51
  %145 = load ptr, ptr %144, align 8
  %146 = icmp ne ptr %145, null
  br i1 %146, label %151, label %147

147:                                              ; preds = %139
  br label %148

148:                                              ; preds = %147
  call void (i32, i32, ptr, ...) @pg_log_generic(i32 noundef 4, i32 noundef 0, ptr noundef @.str.6)
  call void @exit_nicely(i32 noundef 1) #9
  unreachable

149:                                              ; No predecessors!
  br label %150

150:                                              ; preds = %149
  br label %151

151:                                              ; preds = %150, %139
  br label %152

152:                                              ; preds = %151, %138
  %153 = load ptr, ptr %2, align 8
  %154 = getelementptr inbounds nuw %struct._archiveHandle, ptr %153, i32 0, i32 51
  %155 = load ptr, ptr %154, align 8
  %156 = call zeroext i1 @checkSeek(ptr noundef %155)
  %157 = zext i1 %156 to i32
  %158 = load ptr, ptr %3, align 8
  %159 = getelementptr inbounds nuw %struct.lclContext, ptr %158, i32 0, i32 1
  store i32 %157, ptr %159, align 8
  %160 = load ptr, ptr %2, align 8
  call void @ReadHead(ptr noundef %160)
  %161 = load ptr, ptr %2, align 8
  call void @ReadToc(ptr noundef %161)
  %162 = load ptr, ptr %2, align 8
  %163 = load ptr, ptr %3, align 8
  %164 = call i64 @_getFilePos(ptr noundef %162, ptr noundef %163)
  %165 = load ptr, ptr %3, align 8
  %166 = getelementptr inbounds nuw %struct.lclContext, ptr %165, i32 0, i32 2
  store i64 %164, ptr %166, align 8
  br label %167

167:                                              ; preds = %152, %101
  call void @llvm.lifetime.end.p0(i64 8, ptr %3) #7
  ret void
}