; Function Attrs: nounwind uwtable
define dso_local void @InitArchiveFmt_Custom(ptr noundef initializes((216, 360), (368, 408), (488, 496), (592, 600)) %0) local_unnamed_addr #0 {
  %2 = getelementptr inbounds nuw i8, ptr %0, i64 216
  store ptr @_ArchiveEntry, ptr %2, align 8
  %3 = getelementptr inbounds nuw i8, ptr %0, i64 224
  store ptr @_StartData, ptr %3, align 8
  %4 = getelementptr inbounds nuw i8, ptr %0, i64 232
  store ptr @_WriteData, ptr %4, align 8
  %5 = getelementptr inbounds nuw i8, ptr %0, i64 240
  store ptr @_EndData, ptr %5, align 8
  %6 = getelementptr inbounds nuw i8, ptr %0, i64 248
  store ptr @_WriteByte, ptr %6, align 8
  %7 = getelementptr inbounds nuw i8, ptr %0, i64 256
  store ptr @_ReadByte, ptr %7, align 8
  %8 = getelementptr inbounds nuw i8, ptr %0, i64 264
  store ptr @_WriteBuf, ptr %8, align 8
  %9 = getelementptr inbounds nuw i8, ptr %0, i64 272
  store ptr @_ReadBuf, ptr %9, align 8
  %10 = getelementptr inbounds nuw i8, ptr %0, i64 280
  store ptr @_CloseArchive, ptr %10, align 8
  %11 = getelementptr inbounds nuw i8, ptr %0, i64 288
  store ptr @_ReopenArchive, ptr %11, align 8
  %12 = getelementptr inbounds nuw i8, ptr %0, i64 320
  store ptr @_PrintTocData, ptr %12, align 8
  %13 = getelementptr inbounds nuw i8, ptr %0, i64 304
  store ptr @_ReadExtraToc, ptr %13, align 8
  %14 = getelementptr inbounds nuw i8, ptr %0, i64 296
  store ptr @_WriteExtraToc, ptr %14, align 8
  %15 = getelementptr inbounds nuw i8, ptr %0, i64 312
  store ptr @_PrintExtraToc, ptr %15, align 8
  %16 = getelementptr inbounds nuw i8, ptr %0, i64 328
  store ptr @_StartLOs, ptr %16, align 8
  %17 = getelementptr inbounds nuw i8, ptr %0, i64 344
  store ptr @_StartLO, ptr %17, align 8
  %18 = getelementptr inbounds nuw i8, ptr %0, i64 352
  store ptr @_EndLO, ptr %18, align 8
  %19 = getelementptr inbounds nuw i8, ptr %0, i64 336
  store ptr @_EndLOs, ptr %19, align 8
  %20 = getelementptr inbounds nuw i8, ptr %0, i64 384
  store ptr @_PrepParallelRestore, ptr %20, align 8
  %21 = getelementptr inbounds nuw i8, ptr %0, i64 392
  store ptr @_Clone, ptr %21, align 8
  %22 = getelementptr inbounds nuw i8, ptr %0, i64 400
  store ptr @_DeClone, ptr %22, align 8
  %23 = getelementptr inbounds nuw i8, ptr %0, i64 368
  store ptr null, ptr %23, align 8
  %24 = getelementptr inbounds nuw i8, ptr %0, i64 376
  store ptr @_WorkerJobRestoreCustom, ptr %24, align 8
  %25 = tail call ptr @pg_malloc0(i64 noundef 24) #7
  %26 = getelementptr inbounds nuw i8, ptr %0, i64 592
  store ptr %25, ptr %26, align 8
  %27 = getelementptr inbounds nuw i8, ptr %0, i64 584
  %28 = load i32, ptr %27, align 8
  %29 = icmp eq i32 %28, 1
  %30 = getelementptr inbounds nuw i8, ptr %0, i64 480
  %31 = load ptr, ptr %30, align 8
  %.not55 = icmp eq ptr %31, null
  br i1 %29, label %32, label %48

32:                                               ; preds = %1
  br i1 %.not55, label %39, label %33

33:                                               ; preds = %32
  %strcmpload56 = load i8, ptr %31, align 1
  %.not57 = icmp eq i8 %strcmpload56, 0
  br i1 %.not57, label %39, label %34

34:                                               ; preds = %33
  %35 = tail call noalias ptr @fopen(ptr noundef nonnull %31, ptr noundef nonnull @.str.1)
  %36 = getelementptr inbounds nuw i8, ptr %0, i64 488
  store ptr %35, ptr %36, align 8
  %.not59 = icmp eq ptr %35, null
  br i1 %.not59, label %37, label %43

37:                                               ; preds = %34
  %38 = load ptr, ptr %30, align 8
  tail call void (i32, i32, ptr, ...) @pg_log_generic(i32 noundef 4, i32 noundef 0, ptr noundef nonnull @.str.2, ptr noundef %38) #7
  tail call void @exit_nicely(i32 noundef 1) #8
  unreachable

39:                                               ; preds = %33, %32
  %40 = load ptr, ptr @stdout, align 8
  %41 = getelementptr inbounds nuw i8, ptr %0, i64 488
  store ptr %40, ptr %41, align 8
  %.not58 = icmp eq ptr %40, null
  br i1 %.not58, label %42, label %43

42:                                               ; preds = %39
  tail call void (i32, i32, ptr, ...) @pg_log_generic(i32 noundef 4, i32 noundef 0, ptr noundef nonnull @.str.3) #7
  tail call void @exit_nicely(i32 noundef 1) #8
  unreachable

43:                                               ; preds = %39, %34
  %44 = phi ptr [ %40, %39 ], [ %35, %34 ]
  %45 = tail call zeroext i1 @checkSeek(ptr noundef nonnull %44) #7
  %46 = zext i1 %45 to i32
  %47 = getelementptr inbounds nuw i8, ptr %25, i64 8
  store i32 %46, ptr %47, align 8
  br label %71

48:                                               ; preds = %1
  br i1 %.not55, label %55, label %49

49:                                               ; preds = %48
  %strcmpload = load i8, ptr %31, align 1
  %.not52 = icmp eq i8 %strcmpload, 0
  br i1 %.not52, label %55, label %50

50:                                               ; preds = %49
  %51 = tail call noalias ptr @fopen(ptr noundef nonnull %31, ptr noundef nonnull @.str.4)
  %52 = getelementptr inbounds nuw i8, ptr %0, i64 488
  store ptr %51, ptr %52, align 8
  %.not54 = icmp eq ptr %51, null
  br i1 %.not54, label %53, label %59

53:                                               ; preds = %50
  %54 = load ptr, ptr %30, align 8
  tail call void (i32, i32, ptr, ...) @pg_log_generic(i32 noundef 4, i32 noundef 0, ptr noundef nonnull @.str.5, ptr noundef %54) #7
  tail call void @exit_nicely(i32 noundef 1) #8
  unreachable

55:                                               ; preds = %49, %48
  %56 = load ptr, ptr @stdin, align 8
  %57 = getelementptr inbounds nuw i8, ptr %0, i64 488
  store ptr %56, ptr %57, align 8
  %.not53 = icmp eq ptr %56, null
  br i1 %.not53, label %58, label %59

58:                                               ; preds = %55
  tail call void (i32, i32, ptr, ...) @pg_log_generic(i32 noundef 4, i32 noundef 0, ptr noundef nonnull @.str.6) #7
  tail call void @exit_nicely(i32 noundef 1) #8
  unreachable

59:                                               ; preds = %55, %50
  %60 = phi ptr [ %56, %55 ], [ %51, %50 ]
  %61 = getelementptr inbounds nuw i8, ptr %0, i64 488
  %62 = tail call zeroext i1 @checkSeek(ptr noundef nonnull %60) #7
  %63 = zext i1 %62 to i32
  %64 = getelementptr inbounds nuw i8, ptr %25, i64 8
  store i32 %63, ptr %64, align 8
  tail call void @ReadHead(ptr noundef nonnull %0) #7
  tail call void @ReadToc(ptr noundef nonnull %0) #7
  %.val = load ptr, ptr %61, align 8
  %65 = tail call i64 @ftello(ptr noundef %.val)
  %66 = icmp slt i64 %65, 0
  br i1 %66, label %67, label %_getFilePos.exit

67:                                               ; preds = %59
  %68 = load i32, ptr %64, align 8
  %.not.i = icmp eq i32 %68, 0
  br i1 %.not.i, label %_getFilePos.exit, label %69

69:                                               ; preds = %67
  tail call void (i32, i32, ptr, ...) @pg_log_generic(i32 noundef 4, i32 noundef 0, ptr noundef nonnull @.str.19) #7
  tail call void @exit_nicely(i32 noundef 1) #8
  unreachable

_getFilePos.exit:                                 ; preds = %59, %67
  %70 = getelementptr inbounds nuw i8, ptr %25, i64 16
  store i64 %65, ptr %70, align 8
  br label %71

71:                                               ; preds = %_getFilePos.exit, %43
  ret void
}